(dp0
S'cookies'
p1
(dp2
S'wxloadtime'
p3
S'1489909616'
p4
sS'webwx_data_ticket'
p5
S'gSehHJh2TCFG8VYd3wp7WAmS'
p6
sS'wxuin'
p7
S'1262283774'
p8
sS'login_frequency'
p9
S'2'
p10
sS'MM_WX_NOTIFY_STATE'
p11
S'1'
p12
sS'MM_WX_SOUND_STATE'
p13
g12
sS'webwx_auth_ticket'
p14
S'CIsBEJXblOgFGoAB8VqWC8OVyPTrgmIZoNhRQ+b7V7SeTe8xVqj+sEx+4z5V22ZHUvCCUSNqbWS6UPMTJ/CVtEpGOfe5Z4bHcingxiYPJgDysJ2CAJxOct48OGSkBQN4xNDmSLxw5jzmHfQq7pl3rPDyyYj2kQrvSIXuLUkPUFxv7mJtK8kGHGImkrA='
p15
sS'last_wxuin'
p16
S'1262283774'
p17
sS'webwxuvid'
p18
S'6ac4227b95e7fb4d1880dcca428e9a5ce35a748311b544c678060aca7a1f7b7367d602762f92635a3f572cabb814a609'
p19
sS'wxpluginkey'
p20
S'1489907969'
p21
sS'wxsid'
p22
S'g2ZeRpwy4IyTN8Ad'
p23
sS'mm_lang'
p24
S'zh_CN'
p25
ssS'version'
p26
S'1.2.31'
p27
sS'storage'
p28
(dp29
S'userName'
p30
V@38ed8ab288d65a62beb691caaecef10e543bcde74c791b185fe9e67c437cb615
p31
sS'lastInputUserName'
p32
NsS'memberList'
p33
(lp34
(dp35
S'UserName'
p36
g31
sS'City'
p37
S''
p38
sS'DisplayName'
p39
g38
sS'UniFriend'
p40
I0
sS'MemberList'
p41
(lp42
sS'PYQuanPin'
p43
V
p44
sS'RemarkPYInitial'
p45
g44
sS'Sex'
p46
I1
sS'AppAccountFlag'
p47
I0
sS'VerifyFlag'
p48
I0
sS'Province'
p49
g38
sS'KeyWord'
p50
g38
sS'RemarkName'
p51
g44
sS'PYInitial'
p52
g44
sS'ChatRoomId'
p53
I0
sS'HideInputBarFlag'
p54
I0
sVHeadImgFlag
p55
I1
sS'EncryChatRoomId'
p56
g38
sS'AttrStatus'
p57
I0
sVWebWxPluginSwitch
p58
I0
sS'SnsFlag'
p59
I0
sS'MemberCount'
p60
I0
sS'OwnerUin'
p61
I0
sS'Alias'
p62
g38
sS'Signature'
p63
VWinter is coming!
p64
sS'ContactFlag'
p65
I0
sS'NickName'
p66
VWatson\u52a9\u624b
p67
sS'RemarkPYQuanPin'
p68
g44
sS'HeadImgUrl'
p69
V/cgi-bin/mmwebwx-bin/webwxgeticon?seq=198304818&username=@38ed8ab288d65a62beb691caaecef10e543bcde74c791b185fe9e67c437cb615&skey=@crypt_b2c8229f_95781070dc949dbd6a5108c61381736a
p70
sS'Uin'
p71
I1262283774
sS'StarFriend'
p72
I0
sS'Statues'
p73
I0
sa(dp74
VUserName
p75
V@038390838458d39ab6cdfc258d77d6d9
p76
sVCity
p77
V\u5927\u8fde
p78
sVDisplayName
p79
g44
sVUniFriend
p80
I0
sVMemberList
p81
(lp82
sVPYQuanPin
p83
VKevin
p84
sVRemarkPYInitial
p85
g44
sVUin
p86
I0
sVAppAccountFlag
p87
I0
sVVerifyFlag
p88
I0
sVProvince
p89
V\u8fbd\u5b81
p90
sVKeyWord
p91
VKev
p92
sVRemarkName
p93
g44
sVPYInitial
p94
VKEVIN
p95
sVChatRoomId
p96
I0
sVIsOwner
p97
I0
sVHideInputBarFlag
p98
I0
sVEncryChatRoomId
p99
g44
sVAttrStatus
p100
I4295805
sVSnsFlag
p101
I49
sVMemberCount
p102
I0
sVOwnerUin
p103
I0
sVAlias
p104
Vw1553291835
p105
sVSignature
p106
V\u6211\u6ca1\u6709\u4ec0\u4e48\u7279\u6b8a\u7980\u8d4b\uff0c\u53ea\u662f\u62b1\u7740\u72c2\u70ed\u7684\u597d\u5947\u5fc3\u3002
p107
sVContactFlag
p108
I32771
sVNickName
p109
VKevin
p110
sVRemarkPYQuanPin
p111
g44
sVHeadImgUrl
p112
V/cgi-bin/mmwebwx-bin/webwxgeticon?seq=661190014&username=@038390838458d39ab6cdfc258d77d6d9&skey=@crypt_b2c8229f_95781070dc949dbd6a5108c61381736a
p113
sVSex
p114
I1
sVStarFriend
p115
I0
sVStatues
p116
I0
sa(dp117
VUserName
p118
V@c3583f6a61706950f992d13b279ed9ad9e6b13836ac9ab8f079b3a60cdacbf74
p119
sVCity
p120
V\u5927\u8fde
p121
sVDisplayName
p122
g44
sVUniFriend
p123
I0
sVMemberList
p124
(lp125
sVPYQuanPin
p126
VRachelZhao
p127
sVRemarkPYInitial
p128
g44
sVUin
p129
I0
sVAppAccountFlag
p130
I0
sVVerifyFlag
p131
I0
sVProvince
p132
V\u8fbd\u5b81
p133
sVKeyWord
p134
g44
sVRemarkName
p135
g44
sVPYInitial
p136
VRACHELZHAO
p137
sVChatRoomId
p138
I0
sVIsOwner
p139
I0
sVHideInputBarFlag
p140
I0
sVEncryChatRoomId
p141
g44
sVAttrStatus
p142
I100541
sVSnsFlag
p143
I49
sVMemberCount
p144
I0
sVOwnerUin
p145
I0
sVAlias
p146
VZY18940231163
p147
sVSignature
p148
VWe loved with a love was more than a love
p149
sVContactFlag
p150
I3
sVNickName
p151
VRachel Zhao
p152
sVRemarkPYQuanPin
p153
g44
sVHeadImgUrl
p154
V/cgi-bin/mmwebwx-bin/webwxgeticon?seq=661190417&username=@c3583f6a61706950f992d13b279ed9ad9e6b13836ac9ab8f079b3a60cdacbf74&skey=@crypt_b2c8229f_95781070dc949dbd6a5108c61381736a
p155
sVSex
p156
I2
sVStarFriend
p157
I0
sVStatues
p158
I0
sa(dp159
VUserName
p160
V@0c6a8e8b495e237d92ca51cdd0205bc081314ac6d7dd5d0265f12208e2cf23b4
p161
sVCity
p162
V\u5927\u8fde
p163
sVDisplayName
p164
g44
sVUniFriend
p165
I0
sVMemberList
p166
(lp167
sVPYQuanPin
p168
Vqiweijiespanclassemojiemoji2728spanspanclassemojiemoji1f48bspan
p169
sVRemarkPYInitial
p170
g44
sVUin
p171
I0
sVAppAccountFlag
p172
I0
sVVerifyFlag
p173
I0
sVProvince
p174
V\u8fbd\u5b81
p175
sVKeyWord
p176
g44
sVRemarkName
p177
g44
sVPYInitial
p178
VQWJSPANCLASSEMOJIEMOJI2728SPANSPANCLASSEMOJIEMOJI1F48BSPAN
p179
sVChatRoomId
p180
I0
sVIsOwner
p181
I0
sVHideInputBarFlag
p182
I0
sVEncryChatRoomId
p183
g44
sVAttrStatus
p184
I98343
sVSnsFlag
p185
I49
sVMemberCount
p186
I0
sVOwnerUin
p187
I0
sVAlias
p188
Vjier_0728
p189
sVSignature
p190
V\u77e5\u8db3\u5e38\u4e50\uff0c\u77e5\u4e0d\u8db3\u601d\u8fdb\u3002
p191
sVContactFlag
p192
I3
sVNickName
p193
V\u621a\u4f1f\u6770\u2728\U0001f48b
p194
sVRemarkPYQuanPin
p195
g44
sVHeadImgUrl
p196
V/cgi-bin/mmwebwx-bin/webwxgeticon?seq=661190021&username=@0c6a8e8b495e237d92ca51cdd0205bc081314ac6d7dd5d0265f12208e2cf23b4&skey=@crypt_b2c8229f_95781070dc949dbd6a5108c61381736a
p197
sVSex
p198
I2
sVStarFriend
p199
I0
sVStatues
p200
I0
sasS'chatroomList'
p201
(lp202
(dp203
VUserName
p204
V@@2b89532b85f17b42c0d36f7d318978ebbb46e857b7f30efa0dee250f60fc389e
p205
sVCity
p206
g44
sVDisplayName
p207
g44
sVUniFriend
p208
I0
sS'self'
p209
(dp210
g36
g31
sg37
g38
sg39
g38
sg40
I0
sg61
I0
sg41
(lp211
sg43
g44
sg45
g44
sg71
I1262283774
sg47
I0
sg48
I0
sg49
g38
sg50
g38
sg51
g44
sg52
g44
sg53
I0
sg54
I0
sg55
I1
sg56
g38
sg57
I0
sg59
I0
sg60
I0
sg58
I0
sg62
g38
sg63
g64
sg65
I0
sg66
g67
sg68
g44
sg69
g70
sg46
I1
sg72
I0
sg73
I0
ssVMemberList
p212
(lp213
sVPYQuanPin
p214
g44
sVRemarkPYInitial
p215
g44
sVSex
p216
I0
sVAppAccountFlag
p217
I0
sVVerifyFlag
p218
I0
sVProvince
p219
g44
sVKeyWord
p220
g44
sVRemarkName
p221
g44
sVPYInitial
p222
g44
sVIsOwner
p223
I0
sVChatRoomId
p224
I0
sVHideInputBarFlag
p225
I0
sVEncryChatRoomId
p226
g44
sVAttrStatus
p227
I0
sVSnsFlag
p228
I0
sVMemberCount
p229
I101
sVOwnerUin
p230
I0
sVAlias
p231
g44
sVSignature
p232
g44
sVContactFlag
p233
I0
sVNickName
p234
VWatson\u5174\u8da3\u5b66\u4e60\u4f1a
p235
sVRemarkPYQuanPin
p236
g44
sVHeadImgUrl
p237
V/cgi-bin/mmwebwx-bin/webwxgetheadimg?seq=0&username=@@2b89532b85f17b42c0d36f7d318978ebbb46e857b7f30efa0dee250f60fc389e&skey=@crypt_b2c8229f_95781070dc949dbd6a5108c61381736a
p238
sVUin
p239
I0
sVStarFriend
p240
I0
sVStatues
p241
I1
sS'isAdmin'
p242
Nsa(dp243
VUserName
p244
V@@f4fdc9aa07a2314641837fa386efa7764eff25b8fabd5cb8041d8a623c048763
p245
sVCity
p246
g44
sVDisplayName
p247
g44
sVUniFriend
p248
I0
sg209
(dp249
g36
g31
sg37
g38
sg39
g38
sg40
I0
sg61
I0
sg41
(lp250
sg43
g44
sg45
g44
sg71
I1262283774
sg47
I0
sg48
I0
sg49
g38
sg50
g38
sg51
g44
sg52
g44
sg53
I0
sg54
I0
sg55
I1
sg56
g38
sg57
I0
sg59
I0
sg60
I0
sg58
I0
sg62
g38
sg63
g64
sg65
I0
sg66
g67
sg68
g44
sg69
g70
sg46
I1
sg72
I0
sg73
I0
ssVMemberList
p251
(lp252
sVPYQuanPin
p253
g44
sVRemarkPYInitial
p254
g44
sVSex
p255
I0
sVAppAccountFlag
p256
I0
sVVerifyFlag
p257
I0
sVProvince
p258
g44
sVKeyWord
p259
g44
sVRemarkName
p260
g44
sVPYInitial
p261
g44
sVIsOwner
p262
I0
sVChatRoomId
p263
I0
sVHideInputBarFlag
p264
I0
sVEncryChatRoomId
p265
g44
sVAttrStatus
p266
I0
sVSnsFlag
p267
I0
sVMemberCount
p268
I3
sVOwnerUin
p269
I0
sVAlias
p270
g44
sVSignature
p271
g44
sVContactFlag
p272
I0
sVNickName
p273
VKevin,\u674e\u73b2\u5764,Watson\u52a9\u624b
p274
sVRemarkPYQuanPin
p275
g44
sVHeadImgUrl
p276
V/cgi-bin/mmwebwx-bin/webwxgetheadimg?seq=0&username=@@f4fdc9aa07a2314641837fa386efa7764eff25b8fabd5cb8041d8a623c048763&skey=@crypt_b2c8229f_95781070dc949dbd6a5108c61381736a
p277
sVUin
p278
I0
sVStarFriend
p279
I0
sVStatues
p280
I1
sg242
Nsa(dp281
VUserName
p282
V@@526ce1750a8b6a6c24ced9dd719b6378421f0a6f445123c74a195831efe4d81d
p283
sVCity
p284
g44
sVDisplayName
p285
g44
sVUniFriend
p286
I0
sg209
(dp287
g36
g31
sg37
g38
sg39
g38
sg40
I0
sg61
I0
sg41
(lp288
sg43
g44
sg45
g44
sg71
I1262283774
sg47
I0
sg48
I0
sg49
g38
sg50
g38
sg51
g44
sg52
g44
sg53
I0
sg54
I0
sg55
I1
sg56
g38
sg57
I0
sg59
I0
sg60
I0
sg58
I0
sg62
g38
sg63
g64
sg65
I0
sg66
g67
sg68
g44
sg69
g70
sg46
I1
sg72
I0
sg73
I0
ssVMemberList
p289
(lp290
sVPYQuanPin
p291
g44
sVRemarkPYInitial
p292
g44
sVSex
p293
I0
sVAppAccountFlag
p294
I0
sVVerifyFlag
p295
I0
sVProvince
p296
g44
sVKeyWord
p297
g44
sVRemarkName
p298
g44
sVPYInitial
p299
g44
sVIsOwner
p300
I0
sVChatRoomId
p301
I0
sVHideInputBarFlag
p302
I0
sVEncryChatRoomId
p303
g44
sVAttrStatus
p304
I0
sVSnsFlag
p305
I0
sVMemberCount
p306
I24
sVOwnerUin
p307
I0
sVAlias
p308
g44
sVSignature
p309
g44
sVContactFlag
p310
I0
sVNickName
p311
V0324Watson\u5206\u4eab
p312
sVRemarkPYQuanPin
p313
g44
sVHeadImgUrl
p314
V/cgi-bin/mmwebwx-bin/webwxgetheadimg?seq=0&username=@@526ce1750a8b6a6c24ced9dd719b6378421f0a6f445123c74a195831efe4d81d&skey=@crypt_b2c8229f_95781070dc949dbd6a5108c61381736a
p315
sVUin
p316
I0
sVStarFriend
p317
I0
sVStatues
p318
I1
sg242
NsasS'nickName'
p319
g67
sS'mpList'
p320
(lp321
ssS'loginInfo'
p322
(dp323
S'SyncKey'
p324
(dp325
VCount
p326
I4
sVList
p327
(lp328
(dp329
VVal
p330
I661190052
sVKey
p331
I1
sa(dp332
VVal
p333
I661190499
sVKey
p334
I2
sa(dp335
VVal
p336
I661190417
sVKey
p337
I3
sa(dp338
VVal
p339
I1489907969
sVKey
p340
I1000
sassS'syncUrl'
p341
S'https://webpush.wx.qq.com/cgi-bin/mmwebwx-bin'
p342
sS'skey'
p343
V@crypt_b2c8229f_95781070dc949dbd6a5108c61381736a
p344
sS'wxuin'
p345
V1262283774
p346
sS'synckey'
p347
S'1_661190052|2_661190499|3_661190417|1000_1489907969'
p348
sS'url'
p349
Vhttps://wx.qq.com/cgi-bin/mmwebwx-bin
p350
sS'pass_ticket'
p351
V9EnUIwGhWm6YvyVHjHn1yRYDz9xkQ3RH6VGxO4e8GIeeiozp2cKl72dJfjECYG13
p352
sS'wxsid'
p353
Vg2ZeRpwy4IyTN8Ad
p354
sS'InviteStartCount'
p355
I40
sS'User'
p356
g35
sS'fileUrl'
p357
S'https://file.wx.qq.com/cgi-bin/mmwebwx-bin'
p358
sS'BaseRequest'
p359
(dp360
g71
g346
sS'Skey'
p361
g344
sS'DeviceID'
p362
g352
sS'Sid'
p363
g354
ssS'deviceid'
p364
S'e816153933440242'
p365
ss.